target datalayout = "e-m:e-p270:32:32-p271:32:32-p272:64:64-i64:64-i128:128-f80:128-n8:16:32:64-S128"
target triple = "x86_64-pc-linux-gnu"

%struct._packet_info = type { ptr, ptr, i32, i32, %struct.nstime_t, %struct.nstime_t, %struct.nstime_t, i8, ptr, ptr, ptr, ptr, %struct._address, %struct._address, %struct._address, %struct._address, %struct._address, %struct._address, i32, ptr, i8, [3 x i8], %struct.anon, i32, i32, i32, i32, ptr, i8, ptr, ptr, i16, i16, i32, i32, i16, i32, i32, ptr, ptr, ptr, i8, i8, i16, i16, i16, i32, i16, i16, ptr, ptr, ptr, ptr, ptr, i32, i32 }
%struct.nstime_t = type { i64, i32 }
%struct._address = type { i32, i32, ptr, ptr }
%struct.anon = type { i8, [3 x i8] }

@hf_tcpros_message = internal global i32 0, align 4
@hf_tcpros_message_length = internal global i32 0, align 4
@hf_tcpros_message_body = internal global i32 0, align 4
@hf_tcpros_message_header = internal global i32 0, align 4
@hf_tcpros_message_header_seq = internal global i32 0, align 4
@hf_tcpros_message_header_stamp = internal global i32 0, align 4
@hf_tcpros_message_header_stamp_sec = internal global i32 0, align 4
@hf_tcpros_message_header_stamp_nsec = internal global i32 0, align 4
@hf_tcpros_message_header_frame = internal global i32 0, align 4
@hf_tcpros_message_header_frame_length = internal global i32 0, align 4
@hf_tcpros_message_header_frame_value = internal global i32 0, align 4
@hf_tcpros_message_payload = internal global i32 0, align 4
@ett_tcpros = internal global i32 0, align 4
@.str.76 = private unnamed_addr constant [20 x i8] c"Timestamp: %d.%09d \00", align 1
@.str.77 = private unnamed_addr constant [11 x i8] c"[ROS Msg] \00", align 1
@.str.78 = private unnamed_addr constant [9 x i8] c"Seq: %d \00", align 1
@.str.79 = private unnamed_addr constant [16 x i8] c"Frame ID: '%s' \00", align 1

; Function Attrs: null_pointer_is_valid sspstrong uwtable
define internal i32 @dissect_ros_message_header_stamp(ptr noundef %0, ptr noundef %1, ptr noundef %2, i32 noundef %3) #0 {
  %5 = alloca ptr, align 8
  %6 = alloca ptr, align 8
  %7 = alloca ptr, align 8
  %8 = alloca i32, align 4
  %9 = alloca ptr, align 8
  %10 = alloca ptr, align 8
  %11 = alloca i32, align 4
  %12 = alloca i32, align 4
  %13 = alloca i32, align 4
  store ptr %0, ptr %5, align 8
  store ptr %1, ptr %6, align 8
  store ptr %2, ptr %7, align 8
  store i32 %3, ptr %8, align 4
  call void @llvm.lifetime.start.p0(i64 8, ptr %9) #3
  call void @llvm.lifetime.start.p0(i64 8, ptr %10) #3
  call void @llvm.lifetime.start.p0(i64 4, ptr %11) #3
  store i32 0, ptr %11, align 4
  call void @llvm.lifetime.start.p0(i64 4, ptr %12) #3
  call void @llvm.lifetime.start.p0(i64 4, ptr %13) #3
  %14 = load ptr, ptr %6, align 8
  %15 = load i32, ptr @hf_tcpros_message_header_stamp, align 4
  %16 = load ptr, ptr %5, align 8
  %17 = load i32, ptr %8, align 4
  %18 = load i32, ptr %11, align 4
  %19 = add i32 %17, %18
  %20 = call ptr @proto_tree_add_item(ptr noundef %14, i32 noundef %15, ptr noundef %16, i32 noundef %19, i32 noundef 8, i32 noundef -2147483648)
  store ptr %20, ptr %9, align 8
  %21 = load ptr, ptr %9, align 8
  %22 = load i32, ptr @ett_tcpros, align 4
  %23 = call ptr @proto_item_add_subtree(ptr noundef %21, i32 noundef %22)
  store ptr %23, ptr %10, align 8
  %24 = load ptr, ptr %10, align 8
  %25 = load i32, ptr @hf_tcpros_message_header_stamp_sec, align 4
  %26 = load ptr, ptr %5, align 8
  %27 = load i32, ptr %8, align 4
  %28 = load i32, ptr %11, align 4
  %29 = add i32 %27, %28
  %30 = call ptr @proto_tree_add_item(ptr noundef %24, i32 noundef %25, ptr noundef %26, i32 noundef %29, i32 noundef 4, i32 noundef -2147483648)
  %31 = load ptr, ptr %5, align 8
  %32 = load i32, ptr %8, align 4
  %33 = load i32, ptr %11, align 4
  %34 = add i32 %32, %33
  %35 = call i32 @tvb_get_letohl(ptr noundef %31, i32 noundef %34)
  store i32 %35, ptr %12, align 4
  %36 = load i32, ptr %11, align 4
  %37 = add i32 %36, 4
  store i32 %37, ptr %11, align 4
  %38 = load ptr, ptr %10, align 8
  %39 = load i32, ptr @hf_tcpros_message_header_stamp_nsec, align 4
  %40 = load ptr, ptr %5, align 8
  %41 = load i32, ptr %8, align 4
  %42 = load i32, ptr %11, align 4
  %43 = add i32 %41, %42
  %44 = call ptr @proto_tree_add_item(ptr noundef %38, i32 noundef %39, ptr noundef %40, i32 noundef %43, i32 noundef 4, i32 noundef -2147483648)
  %45 = load ptr, ptr %5, align 8
  %46 = load i32, ptr %8, align 4
  %47 = load i32, ptr %11, align 4
  %48 = add i32 %46, %47
  %49 = call i32 @tvb_get_letohl(ptr noundef %45, i32 noundef %48)
  store i32 %49, ptr %13, align 4
  %50 = load i32, ptr %11, align 4
  %51 = add i32 %50, 4
  store i32 %51, ptr %11, align 4
  %52 = load ptr, ptr %7, align 8
  %53 = getelementptr inbounds nuw %struct._packet_info, ptr %52, i32 0, i32 1
  %54 = load ptr, ptr %53, align 8
  %55 = load i32, ptr %12, align 4
  %56 = load i32, ptr %13, align 4
  call void (ptr, i32, ptr, ...) @col_append_fstr(ptr noundef %54, i32 noundef 25, ptr noundef @.str.76, i32 noundef %55, i32 noundef %56)
  %57 = load i32, ptr %11, align 4
  call void @llvm.lifetime.end.p0(i64 4, ptr %13) #3
  call void @llvm.lifetime.end.p0(i64 4, ptr %12) #3
  call void @llvm.lifetime.end.p0(i64 4, ptr %11) #3
  call void @llvm.lifetime.end.p0(i64 8, ptr %10) #3
  call void @llvm.lifetime.end.p0(i64 8, ptr %9) #3
  ret i32 %57
}

; Function Attrs: null_pointer_is_valid sspstrong uwtable
define internal i32 @dissect_ros_message_header(ptr noundef %0, ptr noundef %1, ptr noundef %2, i32 noundef %3) #0 {
  %5 = alloca ptr, align 8
  %6 = alloca ptr, align 8
  %7 = alloca ptr, align 8
  %8 = alloca i32, align 4
  %9 = alloca ptr, align 8
  %10 = alloca ptr, align 8
  %11 = alloca i32, align 4
  %12 = alloca i32, align 4
  %13 = alloca i32, align 4
  %14 = alloca i32, align 4
  %15 = alloca ptr, align 8
  store ptr %0, ptr %5, align 8
  store ptr %1, ptr %6, align 8
  store ptr %2, ptr %7, align 8
  store i32 %3, ptr %8, align 4
  call void @llvm.lifetime.start.p0(i64 8, ptr %9) #3
  call void @llvm.lifetime.start.p0(i64 8, ptr %10) #3
  call void @llvm.lifetime.start.p0(i64 4, ptr %11) #3
  store i32 0, ptr %11, align 4
  call void @llvm.lifetime.start.p0(i64 4, ptr %12) #3
  call void @llvm.lifetime.start.p0(i64 4, ptr %13) #3
  call void @llvm.lifetime.start.p0(i64 4, ptr %14) #3
  call void @llvm.lifetime.start.p0(i64 8, ptr %15) #3
  %16 = load ptr, ptr %5, align 8
  %17 = load i32, ptr %8, align 4
  %18 = load i32, ptr %11, align 4
  %19 = add i32 %17, %18
  %20 = add i32 %19, 4
  %21 = add i32 %20, 8
  %22 = call i32 @tvb_get_letohl(ptr noundef %16, i32 noundef %21)
  store i32 %22, ptr %12, align 4
  %23 = load i32, ptr %12, align 4
  %24 = add i32 16, %23
  store i32 %24, ptr %14, align 4
  %25 = load ptr, ptr %6, align 8
  %26 = load i32, ptr @hf_tcpros_message_header, align 4
  %27 = load ptr, ptr %5, align 8
  %28 = load i32, ptr %8, align 4
  %29 = load i32, ptr %11, align 4
  %30 = add i32 %28, %29
  %31 = load i32, ptr %14, align 4
  %32 = call ptr @proto_tree_add_item(ptr noundef %25, i32 noundef %26, ptr noundef %27, i32 noundef %30, i32 noundef %31, i32 noundef 0)
  store ptr %32, ptr %9, align 8
  %33 = load ptr, ptr %9, align 8
  %34 = load i32, ptr @ett_tcpros, align 4
  %35 = call ptr @proto_item_add_subtree(ptr noundef %33, i32 noundef %34)
  store ptr %35, ptr %10, align 8
  %36 = load ptr, ptr %10, align 8
  %37 = load i32, ptr @hf_tcpros_message_header_seq, align 4
  %38 = load ptr, ptr %5, align 8
  %39 = load i32, ptr %8, align 4
  %40 = load i32, ptr %11, align 4
  %41 = add i32 %39, %40
  %42 = call ptr @proto_tree_add_item(ptr noundef %36, i32 noundef %37, ptr noundef %38, i32 noundef %41, i32 noundef 4, i32 noundef -2147483648)
  %43 = load ptr, ptr %5, align 8
  %44 = load i32, ptr %8, align 4
  %45 = load i32, ptr %11, align 4
  %46 = add i32 %44, %45
  %47 = call i32 @tvb_get_letohl(ptr noundef %43, i32 noundef %46)
  store i32 %47, ptr %13, align 4
  %48 = load i32, ptr %11, align 4
  %49 = add i32 %48, 4
  store i32 %49, ptr %11, align 4
  %50 = load ptr, ptr %7, align 8
  %51 = getelementptr inbounds nuw %struct._packet_info, ptr %50, i32 0, i32 1
  %52 = load ptr, ptr %51, align 8
  %53 = load i32, ptr %13, align 4
  call void (ptr, i32, ptr, ...) @col_append_fstr(ptr noundef %52, i32 noundef 25, ptr noundef @.str.78, i32 noundef %53)
  %54 = load ptr, ptr %5, align 8
  %55 = load ptr, ptr %10, align 8
  %56 = load ptr, ptr %7, align 8
  %57 = load i32, ptr %8, align 4
  %58 = load i32, ptr %11, align 4
  %59 = add i32 %57, %58
  %60 = call i32 @dissect_ros_message_header_stamp(ptr noundef %54, ptr noundef %55, ptr noundef %56, i32 noundef %59)
  %61 = load i32, ptr %11, align 4
  %62 = add i32 %61, %60
  store i32 %62, ptr %11, align 4
  %63 = load ptr, ptr %10, align 8
  %64 = load i32, ptr @hf_tcpros_message_header_frame, align 4
  %65 = load ptr, ptr %5, align 8
  %66 = load i32, ptr %8, align 4
  %67 = load i32, ptr %11, align 4
  %68 = add i32 %66, %67
  %69 = call ptr @proto_tree_add_item(ptr noundef %63, i32 noundef %64, ptr noundef %65, i32 noundef %68, i32 noundef 4, i32 noundef -2147483646)
  store ptr %69, ptr %9, align 8
  %70 = load ptr, ptr %9, align 8
  %71 = load i32, ptr @ett_tcpros, align 4
  %72 = call ptr @proto_item_add_subtree(ptr noundef %70, i32 noundef %71)
  store ptr %72, ptr %10, align 8
  %73 = load ptr, ptr %10, align 8
  %74 = load i32, ptr @hf_tcpros_message_header_frame_length, align 4
  %75 = load ptr, ptr %5, align 8
  %76 = load i32, ptr %8, align 4
  %77 = load i32, ptr %11, align 4
  %78 = add i32 %76, %77
  %79 = call ptr @proto_tree_add_item(ptr noundef %73, i32 noundef %74, ptr noundef %75, i32 noundef %78, i32 noundef 4, i32 noundef -2147483648)
  %80 = load i32, ptr %11, align 4
  %81 = add i32 %80, 4
  store i32 %81, ptr %11, align 4
  %82 = load ptr, ptr %10, align 8
  %83 = load i32, ptr @hf_tcpros_message_header_frame_value, align 4
  %84 = load ptr, ptr %5, align 8
  %85 = load i32, ptr %8, align 4
  %86 = load i32, ptr %11, align 4
  %87 = add i32 %85, %86
  %88 = load i32, ptr %12, align 4
  %89 = load ptr, ptr %7, align 8
  %90 = getelementptr inbounds nuw %struct._packet_info, ptr %89, i32 0, i32 51
  %91 = load ptr, ptr %90, align 8
  %92 = call ptr @proto_tree_add_item_ret_string(ptr noundef %82, i32 noundef %83, ptr noundef %84, i32 noundef %87, i32 noundef %88, i32 noundef 2, ptr noundef %91, ptr noundef %15)
  %93 = load ptr, ptr %7, align 8
  %94 = getelementptr inbounds nuw %struct._packet_info, ptr %93, i32 0, i32 1
  %95 = load ptr, ptr %94, align 8
  %96 = load ptr, ptr %15, align 8
  call void (ptr, i32, ptr, ...) @col_append_fstr(ptr noundef %95, i32 noundef 25, ptr noundef @.str.79, ptr noundef %96)
  %97 = load i32, ptr %12, align 4
  %98 = load i32, ptr %11, align 4
  %99 = add i32 %98, %97
  store i32 %99, ptr %11, align 4
  %100 = load i32, ptr %11, align 4
  call void @llvm.lifetime.end.p0(i64 8, ptr %15) #3
  call void @llvm.lifetime.end.p0(i64 4, ptr %14) #3
  call void @llvm.lifetime.end.p0(i64 4, ptr %13) #3
  call void @llvm.lifetime.end.p0(i64 4, ptr %12) #3
  call void @llvm.lifetime.end.p0(i64 4, ptr %11) #3
  call void @llvm.lifetime.end.p0(i64 8, ptr %10) #3
  call void @llvm.lifetime.end.p0(i64 8, ptr %9) #3
  ret i32 %100
}

; Function Attrs: null_pointer_is_valid sspstrong uwtable
define internal i32 @dissect_ros_message(ptr noundef %0, ptr noundef %1, ptr noundef %2, i32 noundef %3) #0 {
  %5 = alloca ptr, align 8
  %6 = alloca ptr, align 8
  %7 = alloca ptr, align 8
  %8 = alloca i32, align 4
  %9 = alloca ptr, align 8
  %10 = alloca ptr, align 8
  %11 = alloca i32, align 4
  %12 = alloca i32, align 4
  %13 = alloca i32, align 4
  store ptr %0, ptr %5, align 8
  store ptr %1, ptr %6, align 8
  store ptr %2, ptr %7, align 8
  store i32 %3, ptr %8, align 4
  call void @llvm.lifetime.start.p0(i64 8, ptr %9) #3
  call void @llvm.lifetime.start.p0(i64 8, ptr %10) #3
  call void @llvm.lifetime.start.p0(i64 4, ptr %11) #3
  store i32 0, ptr %11, align 4
  call void @llvm.lifetime.start.p0(i64 4, ptr %12) #3
  %14 = load ptr, ptr %5, align 8
  %15 = load i32, ptr %8, align 4
  %16 = call i32 @tvb_get_letohl(ptr noundef %14, i32 noundef %15)
  store i32 %16, ptr %12, align 4
  call void @llvm.lifetime.start.p0(i64 4, ptr %13) #3
  %17 = load ptr, ptr %7, align 8
  %18 = getelementptr inbounds nuw %struct._packet_info, ptr %17, i32 0, i32 1
  %19 = load ptr, ptr %18, align 8
  call void @col_append_str(ptr noundef %19, i32 noundef 25, ptr noundef @.str.77)
  %20 = load ptr, ptr %6, align 8
  %21 = load i32, ptr @hf_tcpros_message, align 4
  %22 = load ptr, ptr %5, align 8
  %23 = load i32, ptr %8, align 4
  %24 = load i32, ptr %11, align 4
  %25 = add i32 %23, %24
  %26 = call ptr @proto_tree_add_item(ptr noundef %20, i32 noundef %21, ptr noundef %22, i32 noundef %25, i32 noundef 4, i32 noundef -2147483648)
  store ptr %26, ptr %9, align 8
  %27 = load ptr, ptr %9, align 8
  %28 = load i32, ptr @ett_tcpros, align 4
  %29 = call ptr @proto_item_add_subtree(ptr noundef %27, i32 noundef %28)
  store ptr %29, ptr %10, align 8
  %30 = load ptr, ptr %10, align 8
  %31 = load i32, ptr @hf_tcpros_message_length, align 4
  %32 = load ptr, ptr %5, align 8
  %33 = load i32, ptr %8, align 4
  %34 = load i32, ptr %11, align 4
  %35 = add i32 %33, %34
  %36 = call ptr @proto_tree_add_item(ptr noundef %30, i32 noundef %31, ptr noundef %32, i32 noundef %35, i32 noundef 4, i32 noundef -2147483648)
  %37 = load i32, ptr %11, align 4
  %38 = add i32 %37, 4
  store i32 %38, ptr %11, align 4
  %39 = load ptr, ptr %10, align 8
  %40 = load i32, ptr @hf_tcpros_message_body, align 4
  %41 = load ptr, ptr %5, align 8
  %42 = load i32, ptr %8, align 4
  %43 = load i32, ptr %11, align 4
  %44 = add i32 %42, %43
  %45 = load i32, ptr %12, align 4
  %46 = call ptr @proto_tree_add_item(ptr noundef %39, i32 noundef %40, ptr noundef %41, i32 noundef %44, i32 noundef %45, i32 noundef 0)
  store ptr %46, ptr %9, align 8
  %47 = load ptr, ptr %9, align 8
  %48 = load i32, ptr @ett_tcpros, align 4
  %49 = call ptr @proto_item_add_subtree(ptr noundef %47, i32 noundef %48)
  store ptr %49, ptr %10, align 8
  %50 = load ptr, ptr %5, align 8
  %51 = load ptr, ptr %10, align 8
  %52 = load ptr, ptr %7, align 8
  %53 = load i32, ptr %8, align 4
  %54 = load i32, ptr %11, align 4
  %55 = add i32 %53, %54
  %56 = call i32 @dissect_ros_message_header(ptr noundef %50, ptr noundef %51, ptr noundef %52, i32 noundef %55)
  %57 = load i32, ptr %11, align 4
  %58 = add i32 %57, %56
  store i32 %58, ptr %11, align 4
  %59 = load i32, ptr %12, align 4
  %60 = add i32 %59, 4
  %61 = load i32, ptr %11, align 4
  %62 = sub i32 %60, %61
  store i32 %62, ptr %13, align 4
  %63 = load ptr, ptr %10, align 8
  %64 = load i32, ptr @hf_tcpros_message_payload, align 4
  %65 = load ptr, ptr %5, align 8
  %66 = load i32, ptr %8, align 4
  %67 = load i32, ptr %11, align 4
  %68 = add i32 %66, %67
  %69 = load i32, ptr %13, align 4
  %70 = call ptr @proto_tree_add_item(ptr noundef %63, i32 noundef %64, ptr noundef %65, i32 noundef %68, i32 noundef %69, i32 noundef 0)
  %71 = load i32, ptr %13, align 4
  %72 = load i32, ptr %11, align 4
  %73 = add i32 %72, %71
  store i32 %73, ptr %11, align 4
  %74 = load i32, ptr %11, align 4
  call void @llvm.lifetime.end.p0(i64 4, ptr %13) #3
  call void @llvm.lifetime.end.p0(i64 4, ptr %12) #3
  call void @llvm.lifetime.end.p0(i64 4, ptr %11) #3
  call void @llvm.lifetime.end.p0(i64 8, ptr %10) #3
  call void @llvm.lifetime.end.p0(i64 8, ptr %9) #3
  ret i32 %74
}