; Function Attrs: null_pointer_is_valid sspstrong uwtable
define internal fastcc i32 @dissect_ros_message(ptr noundef %0, ptr noundef %1, ptr noundef readonly captures(none) %2, i32 noundef %3) unnamed_addr #0 {
  %5 = alloca ptr, align 8
  %6 = tail call i32 @tvb_get_letohl(ptr noundef %0, i32 noundef %3)
  %7 = getelementptr inbounds nuw i8, ptr %2, i64 8
  %8 = load ptr, ptr %7, align 8
  tail call void @col_append_str(ptr noundef %8, i32 noundef 25, ptr noundef nonnull @.str.77)
  %9 = load i32, ptr @hf_tcpros_message, align 4
  %10 = tail call ptr @proto_tree_add_item(ptr noundef %1, i32 noundef %9, ptr noundef %0, i32 noundef %3, i32 noundef 4, i32 noundef -2147483648)
  %11 = load i32, ptr @ett_tcpros, align 4
  %12 = tail call ptr @proto_item_add_subtree(ptr noundef %10, i32 noundef %11)
  %13 = load i32, ptr @hf_tcpros_message_length, align 4
  %14 = tail call ptr @proto_tree_add_item(ptr noundef %12, i32 noundef %13, ptr noundef %0, i32 noundef %3, i32 noundef 4, i32 noundef -2147483648)
  %15 = load i32, ptr @hf_tcpros_message_body, align 4
  %16 = add i32 %3, 4
  %17 = tail call ptr @proto_tree_add_item(ptr noundef %12, i32 noundef %15, ptr noundef %0, i32 noundef %16, i32 noundef %6, i32 noundef 0)
  %18 = load i32, ptr @ett_tcpros, align 4
  %19 = tail call ptr @proto_item_add_subtree(ptr noundef %17, i32 noundef %18)
  call void @llvm.lifetime.start.p0(i64 8, ptr nonnull %5) #3
  %20 = add i32 %3, 8
  %21 = add i32 %3, 16
  %22 = tail call i32 @tvb_get_letohl(ptr noundef %0, i32 noundef %21)
  %23 = add i32 %22, 16
  %24 = load i32, ptr @hf_tcpros_message_header, align 4
  %25 = tail call ptr @proto_tree_add_item(ptr noundef %19, i32 noundef %24, ptr noundef %0, i32 noundef %16, i32 noundef %23, i32 noundef 0)
  %26 = load i32, ptr @ett_tcpros, align 4
  %27 = tail call ptr @proto_item_add_subtree(ptr noundef %25, i32 noundef %26)
  %28 = load i32, ptr @hf_tcpros_message_header_seq, align 4
  %29 = tail call ptr @proto_tree_add_item(ptr noundef %27, i32 noundef %28, ptr noundef %0, i32 noundef %16, i32 noundef 4, i32 noundef -2147483648)
  %30 = tail call i32 @tvb_get_letohl(ptr noundef %0, i32 noundef %16)
  %31 = load ptr, ptr %7, align 8
  tail call void (ptr, i32, ptr, ...) @col_append_fstr(ptr noundef %31, i32 noundef 25, ptr noundef nonnull @.str.78, i32 noundef %30)
  %32 = load i32, ptr @hf_tcpros_message_header_stamp, align 4
  %33 = tail call ptr @proto_tree_add_item(ptr noundef %27, i32 noundef %32, ptr noundef %0, i32 noundef %20, i32 noundef 8, i32 noundef -2147483648)
  %34 = load i32, ptr @ett_tcpros, align 4
  %35 = tail call ptr @proto_item_add_subtree(ptr noundef %33, i32 noundef %34)
  %36 = load i32, ptr @hf_tcpros_message_header_stamp_sec, align 4
  %37 = tail call ptr @proto_tree_add_item(ptr noundef %35, i32 noundef %36, ptr noundef %0, i32 noundef %20, i32 noundef 4, i32 noundef -2147483648)
  %38 = tail call i32 @tvb_get_letohl(ptr noundef %0, i32 noundef %20)
  %39 = load i32, ptr @hf_tcpros_message_header_stamp_nsec, align 4
  %40 = add i32 %3, 12
  %41 = tail call ptr @proto_tree_add_item(ptr noundef %35, i32 noundef %39, ptr noundef %0, i32 noundef %40, i32 noundef 4, i32 noundef -2147483648)
  %42 = tail call i32 @tvb_get_letohl(ptr noundef %0, i32 noundef %40)
  %43 = load ptr, ptr %7, align 8
  tail call void (ptr, i32, ptr, ...) @col_append_fstr(ptr noundef %43, i32 noundef 25, ptr noundef nonnull @.str.76, i32 noundef %38, i32 noundef %42)
  %44 = load i32, ptr @hf_tcpros_message_header_frame, align 4
  %45 = tail call ptr @proto_tree_add_item(ptr noundef %27, i32 noundef %44, ptr noundef %0, i32 noundef %21, i32 noundef 4, i32 noundef -2147483646)
  %46 = load i32, ptr @ett_tcpros, align 4
  %47 = tail call ptr @proto_item_add_subtree(ptr noundef %45, i32 noundef %46)
  %48 = load i32, ptr @hf_tcpros_message_header_frame_length, align 4
  %49 = tail call ptr @proto_tree_add_item(ptr noundef %47, i32 noundef %48, ptr noundef %0, i32 noundef %21, i32 noundef 4, i32 noundef -2147483648)
  %50 = load i32, ptr @hf_tcpros_message_header_frame_value, align 4
  %51 = add i32 %3, 20
  %52 = getelementptr inbounds nuw i8, ptr %2, i64 408
  %53 = load ptr, ptr %52, align 8
  %54 = call ptr @proto_tree_add_item_ret_string(ptr noundef %47, i32 noundef %50, ptr noundef %0, i32 noundef %51, i32 noundef %22, i32 noundef 2, ptr noundef %53, ptr noundef nonnull %5)
  %55 = load ptr, ptr %7, align 8
  %56 = load ptr, ptr %5, align 8
  call void (ptr, i32, ptr, ...) @col_append_fstr(ptr noundef %55, i32 noundef 25, ptr noundef nonnull @.str.79, ptr noundef %56)
  call void @llvm.lifetime.end.p0(i64 8, ptr nonnull %5) #3
  %57 = add i32 %6, 4
  %58 = sub i32 %6, %23
  %59 = load i32, ptr @hf_tcpros_message_payload, align 4
  %60 = add i32 %51, %22
  %61 = call ptr @proto_tree_add_item(ptr noundef %19, i32 noundef %59, ptr noundef %0, i32 noundef %60, i32 noundef %58, i32 noundef 0)
  ret i32 %57
}